; Function Attrs: mustprogress nounwind uwtable
define dso_local noundef ptr @_ZN4llvm28ConstantFoldLoadFromConstPtrEPNS_8ConstantEPNS_4TypeERKNS_10DataLayoutE(ptr noundef %0, ptr noundef %1, ptr noundef nonnull align 8 dereferenceable(512) %2) local_unnamed_addr #0 {
  %4 = alloca %"class.llvm::APInt", align 8
  %5 = alloca %"class.llvm::APInt", align 8
  %6 = getelementptr inbounds nuw i8, ptr %0, i64 8
  %7 = load ptr, ptr %6, align 8
  %8 = tail call noundef i32 @_ZNK4llvm10DataLayout22getIndexTypeSizeInBitsEPNS_4TypeE(ptr noundef nonnull align 8 dereferenceable(512) %2, ptr noundef %7) #17
  %9 = getelementptr inbounds nuw i8, ptr %4, i64 8
  store i32 %8, ptr %9, align 8
  %10 = icmp ult i32 %8, 65
  br i1 %10, label %11, label %12

11:                                               ; preds = %3
  store i64 0, ptr %4, align 8
  br label %_ZN4llvm5APIntC2Ejmbb.exit

12:                                               ; preds = %3
  call void @_ZN4llvm5APInt12initSlowCaseEmb(ptr noundef nonnull align 8 dereferenceable(12) %4, i64 noundef 0, i1 noundef zeroext false) #17
  %.pre = load i32, ptr %9, align 8
  %.pre6 = load i64, ptr %4, align 8
  br label %_ZN4llvm5APIntC2Ejmbb.exit

_ZN4llvm5APIntC2Ejmbb.exit:                       ; preds = %11, %12
  %13 = phi i64 [ 0, %11 ], [ %.pre6, %12 ]
  %14 = phi i32 [ %8, %11 ], [ %.pre, %12 ]
  %15 = getelementptr inbounds nuw i8, ptr %5, i64 8
  store i32 %14, ptr %15, align 8
  store i64 %13, ptr %5, align 8
  store i32 0, ptr %9, align 8
  %16 = call noundef ptr @_ZN4llvm28ConstantFoldLoadFromConstPtrEPNS_8ConstantEPNS_4TypeENS_5APIntERKNS_10DataLayoutE(ptr noundef nonnull %0, ptr noundef %1, ptr noundef nonnull %5, ptr noundef nonnull align 8 dereferenceable(512) %2)
  %17 = load i32, ptr %15, align 8
  %18 = icmp ugt i32 %17, 64
  br i1 %18, label %19, label %_ZN4llvm5APIntD2Ev.exit

19:                                               ; preds = %_ZN4llvm5APIntC2Ejmbb.exit
  %20 = load ptr, ptr %5, align 8
  %21 = icmp eq ptr %20, null
  br i1 %21, label %_ZN4llvm5APIntD2Ev.exit, label %22

22:                                               ; preds = %19
  call void @_ZdaPv(ptr noundef nonnull %20) #18
  br label %_ZN4llvm5APIntD2Ev.exit

_ZN4llvm5APIntD2Ev.exit:                          ; preds = %_ZN4llvm5APIntC2Ejmbb.exit, %19, %22
  %23 = load i32, ptr %9, align 8
  %24 = icmp ugt i32 %23, 64
  br i1 %24, label %25, label %_ZN4llvm5APIntD2Ev.exit5

25:                                               ; preds = %_ZN4llvm5APIntD2Ev.exit
  %26 = load ptr, ptr %4, align 8
  %27 = icmp eq ptr %26, null
  br i1 %27, label %_ZN4llvm5APIntD2Ev.exit5, label %28

28:                                               ; preds = %25
  call void @_ZdaPv(ptr noundef nonnull %26) #18
  br label %_ZN4llvm5APIntD2Ev.exit5

_ZN4llvm5APIntD2Ev.exit5:                         ; preds = %_ZN4llvm5APIntD2Ev.exit, %25, %28
  ret ptr %16
}